target datalayout = "e-m:e-p270:32:32-p271:32:32-p272:64:64-i64:64-i128:128-f80:128-n8:16:32:64-S128"
target triple = "x86_64-unknown-linux-gnu"

%"class.cvc5::internal::NodeTemplate" = type { ptr }
%"class.cvc5::internal::theory::quantifiers::inst::CandidateGenerator" = type { %"class.cvc5::internal::EnvObj", ptr, ptr }
%"class.cvc5::internal::EnvObj" = type { ptr, ptr }
%"class.cvc5::internal::TypeNode" = type { ptr }
%"class.cvc5::internal::theory::quantifiers::inst::CandidateGeneratorQEAll" = type <{ %"class.cvc5::internal::theory::quantifiers::inst::CandidateGenerator", %"class.cvc5::internal::theory::eq::EqClassesIterator", %"class.cvc5::internal::NodeTemplate", %"class.cvc5::internal::TypeNode", %"class.cvc5::internal::NodeTemplate", i32, i8, [3 x i8] }>
%"class.cvc5::internal::theory::eq::EqClassesIterator" = type { ptr, i64 }

; Function Attrs: mustprogress uwtable
define hidden void @_ZN4cvc58internal6theory11quantifiers4inst23CandidateGeneratorQEAll5resetENS0_12NodeTemplateILb1EEE(ptr noundef nonnull align 8 dereferenceable(77) %this, ptr noundef %eqc) unnamed_addr #4 align 2 {
entry:
  %this.addr = alloca ptr, align 8
  %eqc.indirect_addr = alloca ptr, align 8
  %ref.tmp = alloca %"class.cvc5::internal::theory::eq::EqClassesIterator", align 8
  store ptr %this, ptr %this.addr, align 8
  store ptr %eqc, ptr %eqc.indirect_addr, align 8
  %this1 = load ptr, ptr %this.addr, align 8
  %d_qs = getelementptr inbounds %"class.cvc5::internal::theory::quantifiers::inst::CandidateGenerator", ptr %this1, i32 0, i32 1
  %0 = load ptr, ptr %d_qs, align 8
  %call = call noundef ptr @_ZNK4cvc58internal6theory11TheoryState17getEqualityEngineEv(ptr noundef nonnull align 8 dereferenceable(80) %0)
  call void @_ZN4cvc58internal6theory2eq17EqClassesIteratorC1EPKNS2_14EqualityEngineE(ptr noundef nonnull align 8 dereferenceable(16) %ref.tmp, ptr noundef %call)
  %d_eq = getelementptr inbounds %"class.cvc5::internal::theory::quantifiers::inst::CandidateGeneratorQEAll", ptr %this1, i32 0, i32 1
  call void @llvm.memcpy.p0.p0.i64(ptr align 8 %d_eq, ptr align 8 %ref.tmp, i64 16, i1 false)
  %d_firstTime = getelementptr inbounds %"class.cvc5::internal::theory::quantifiers::inst::CandidateGeneratorQEAll", ptr %this1, i32 0, i32 6
  store i8 1, ptr %d_firstTime, align 4
  ret void
}