; Function Attrs: mustprogress uwtable
define hidden void @_ZN4cvc58internal6theory11quantifiers4inst23CandidateGeneratorQEAll5resetENS0_12NodeTemplateILb1EEE(ptr nocapture noundef nonnull align 8 dereferenceable(77) %this, ptr nocapture readnone %eqc) unnamed_addr #3 align 2 {
entry:
  %ref.tmp = alloca %"class.cvc5::internal::theory::eq::EqClassesIterator", align 8
  %d_qs = getelementptr inbounds i8, ptr %this, i64 16
  %0 = load ptr, ptr %d_qs, align 8
  %call = tail call noundef ptr @_ZNK4cvc58internal6theory11TheoryState17getEqualityEngineEv(ptr noundef nonnull align 8 dereferenceable(80) %0)
  call void @_ZN4cvc58internal6theory2eq17EqClassesIteratorC1EPKNS2_14EqualityEngineE(ptr noundef nonnull align 8 dereferenceable(16) %ref.tmp, ptr noundef %call)
  %d_eq = getelementptr inbounds i8, ptr %this, i64 32
  call void @llvm.memcpy.p0.p0.i64(ptr noundef nonnull align 8 dereferenceable(16) %d_eq, ptr noundef nonnull align 8 dereferenceable(16) %ref.tmp, i64 16, i1 false)
  %d_firstTime = getelementptr inbounds i8, ptr %this, i64 76
  store i8 1, ptr %d_firstTime, align 4
  ret void
}